target datalayout = "e-m:e-p270:32:32-p271:32:32-p272:64:64-i64:64-i128:128-f80:128-n8:16:32:64-S128"
target triple = "x86_64-pc-linux-gnu"

%struct.Vec_Int_t_ = type { i32, i32, ptr }
%struct.Vec_Wec_t_ = type { i32, i32, ptr }

; Function Attrs: inlinehint nounwind uwtable
define internal void @Vec_IntGrow(ptr noundef %0, i32 noundef %1) #2 {
  %3 = alloca ptr, align 8
  %4 = alloca i32, align 4
  store ptr %0, ptr %3, align 8, !tbaa !55
  store i32 %1, ptr %4, align 4, !tbaa !8
  %5 = load ptr, ptr %3, align 8, !tbaa !55
  %6 = getelementptr inbounds nuw %struct.Vec_Int_t_, ptr %5, i32 0, i32 0
  %7 = load i32, ptr %6, align 8, !tbaa !79
  %8 = load i32, ptr %4, align 4, !tbaa !8
  %9 = icmp sge i32 %7, %8
  br i1 %9, label %10, label %11

10:                                               ; preds = %2
  br label %36

11:                                               ; preds = %2
  %12 = load ptr, ptr %3, align 8, !tbaa !55
  %13 = getelementptr inbounds nuw %struct.Vec_Int_t_, ptr %12, i32 0, i32 2
  %14 = load ptr, ptr %13, align 8, !tbaa !80
  %15 = icmp ne ptr %14, null
  br i1 %15, label %16, label %24

16:                                               ; preds = %11
  %17 = load ptr, ptr %3, align 8, !tbaa !55
  %18 = getelementptr inbounds nuw %struct.Vec_Int_t_, ptr %17, i32 0, i32 2
  %19 = load ptr, ptr %18, align 8, !tbaa !80
  %20 = load i32, ptr %4, align 4, !tbaa !8
  %21 = sext i32 %20 to i64
  %22 = mul i64 4, %21
  %23 = call ptr @realloc(ptr noundef %19, i64 noundef %22) #16
  br label %29

24:                                               ; preds = %11
  %25 = load i32, ptr %4, align 4, !tbaa !8
  %26 = sext i32 %25 to i64
  %27 = mul i64 4, %26
  %28 = call noalias ptr @malloc(i64 noundef %27) #14
  br label %29

29:                                               ; preds = %24, %16
  %30 = phi ptr [ %23, %16 ], [ %28, %24 ]
  %31 = load ptr, ptr %3, align 8, !tbaa !55
  %32 = getelementptr inbounds nuw %struct.Vec_Int_t_, ptr %31, i32 0, i32 2
  store ptr %30, ptr %32, align 8, !tbaa !80
  %33 = load i32, ptr %4, align 4, !tbaa !8
  %34 = load ptr, ptr %3, align 8, !tbaa !55
  %35 = getelementptr inbounds nuw %struct.Vec_Int_t_, ptr %34, i32 0, i32 0
  store i32 %33, ptr %35, align 8, !tbaa !79
  br label %36

36:                                               ; preds = %29, %10
  ret void
}

; Function Attrs: inlinehint nounwind uwtable
define internal void @Vec_IntPush(ptr noundef %0, i32 noundef %1) #2 {
  %3 = alloca ptr, align 8
  %4 = alloca i32, align 4
  store ptr %0, ptr %3, align 8, !tbaa !55
  store i32 %1, ptr %4, align 4, !tbaa !8
  %5 = load ptr, ptr %3, align 8, !tbaa !55
  %6 = getelementptr inbounds nuw %struct.Vec_Int_t_, ptr %5, i32 0, i32 1
  %7 = load i32, ptr %6, align 4, !tbaa !78
  %8 = load ptr, ptr %3, align 8, !tbaa !55
  %9 = getelementptr inbounds nuw %struct.Vec_Int_t_, ptr %8, i32 0, i32 0
  %10 = load i32, ptr %9, align 8, !tbaa !79
  %11 = icmp eq i32 %7, %10
  br i1 %11, label %12, label %26

12:                                               ; preds = %2
  %13 = load ptr, ptr %3, align 8, !tbaa !55
  %14 = getelementptr inbounds nuw %struct.Vec_Int_t_, ptr %13, i32 0, i32 0
  %15 = load i32, ptr %14, align 8, !tbaa !79
  %16 = icmp slt i32 %15, 16
  br i1 %16, label %17, label %19

17:                                               ; preds = %12
  %18 = load ptr, ptr %3, align 8, !tbaa !55
  call void @Vec_IntGrow(ptr noundef %18, i32 noundef 16)
  br label %25

19:                                               ; preds = %12
  %20 = load ptr, ptr %3, align 8, !tbaa !55
  %21 = load ptr, ptr %3, align 8, !tbaa !55
  %22 = getelementptr inbounds nuw %struct.Vec_Int_t_, ptr %21, i32 0, i32 0
  %23 = load i32, ptr %22, align 8, !tbaa !79
  %24 = mul nsw i32 2, %23
  call void @Vec_IntGrow(ptr noundef %20, i32 noundef %24)
  br label %25

25:                                               ; preds = %19, %17
  br label %26

26:                                               ; preds = %25, %2
  %27 = load i32, ptr %4, align 4, !tbaa !8
  %28 = load ptr, ptr %3, align 8, !tbaa !55
  %29 = getelementptr inbounds nuw %struct.Vec_Int_t_, ptr %28, i32 0, i32 2
  %30 = load ptr, ptr %29, align 8, !tbaa !80
  %31 = load ptr, ptr %3, align 8, !tbaa !55
  %32 = getelementptr inbounds nuw %struct.Vec_Int_t_, ptr %31, i32 0, i32 1
  %33 = load i32, ptr %32, align 4, !tbaa !78
  %34 = add nsw i32 %33, 1
  store i32 %34, ptr %32, align 4, !tbaa !78
  %35 = sext i32 %33 to i64
  %36 = getelementptr inbounds i32, ptr %30, i64 %35
  store i32 %27, ptr %36, align 4, !tbaa !8
  ret void
}

; Function Attrs: inlinehint nounwind uwtable
define internal void @Vec_IntClear(ptr noundef %0) #2 {
  %2 = alloca ptr, align 8
  store ptr %0, ptr %2, align 8, !tbaa !55
  %3 = load ptr, ptr %2, align 8, !tbaa !55
  %4 = getelementptr inbounds nuw %struct.Vec_Int_t_, ptr %3, i32 0, i32 1
  store i32 0, ptr %4, align 4, !tbaa !78
  ret void
}

; Function Attrs: inlinehint nounwind uwtable
define internal ptr @Vec_IntArray(ptr noundef %0) #2 {
  %2 = alloca ptr, align 8
  store ptr %0, ptr %2, align 8, !tbaa !55
  %3 = load ptr, ptr %2, align 8, !tbaa !55
  %4 = getelementptr inbounds nuw %struct.Vec_Int_t_, ptr %3, i32 0, i32 2
  %5 = load ptr, ptr %4, align 8, !tbaa !80
  ret ptr %5
}

; Function Attrs: inlinehint nounwind uwtable
define internal ptr @Vec_WecEntry(ptr noundef %0, i32 noundef %1) #2 {
  %3 = alloca ptr, align 8
  %4 = alloca i32, align 4
  store ptr %0, ptr %3, align 8, !tbaa !82
  store i32 %1, ptr %4, align 4, !tbaa !8
  %5 = load ptr, ptr %3, align 8, !tbaa !82
  %6 = getelementptr inbounds nuw %struct.Vec_Wec_t_, ptr %5, i32 0, i32 2
  %7 = load ptr, ptr %6, align 8, !tbaa !99
  %8 = load i32, ptr %4, align 4, !tbaa !8
  %9 = sext i32 %8 to i64
  %10 = getelementptr inbounds %struct.Vec_Int_t_, ptr %7, i64 %9
  ret ptr %10
}

; Function Attrs: nounwind uwtable
define i32 @Gia_StoSelectOneCut(ptr noundef %0, i32 noundef %1, ptr noundef %2, i32 noundef %3) #0 {
  %5 = alloca i32, align 4
  %6 = alloca ptr, align 8
  %7 = alloca i32, align 4
  %8 = alloca ptr, align 8
  %9 = alloca i32, align 4
  %10 = alloca ptr, align 8
  %11 = alloca i32, align 4
  %12 = alloca i32, align 4
  %13 = alloca ptr, align 8
  %14 = alloca ptr, align 8
  %15 = alloca i32, align 4
  store ptr %0, ptr %6, align 8, !tbaa !82
  store i32 %1, ptr %7, align 4, !tbaa !8
  store ptr %2, ptr %8, align 8, !tbaa !55
  store i32 %3, ptr %9, align 4, !tbaa !8
  call void @llvm.lifetime.start.p0(i64 8, ptr %10) #12
  %16 = load ptr, ptr %6, align 8, !tbaa !82
  %17 = load i32, ptr %7, align 4, !tbaa !8
  %18 = call ptr @Vec_WecEntry(ptr noundef %16, i32 noundef %17)
  store ptr %18, ptr %10, align 8, !tbaa !55
  call void @llvm.lifetime.start.p0(i64 4, ptr %11) #12
  call void @llvm.lifetime.start.p0(i64 4, ptr %12) #12
  call void @llvm.lifetime.start.p0(i64 8, ptr %13) #12
  call void @llvm.lifetime.start.p0(i64 8, ptr %14) #12
  %19 = load ptr, ptr %10, align 8, !tbaa !55
  %20 = call ptr @Vec_IntArray(ptr noundef %19)
  store ptr %20, ptr %14, align 8, !tbaa !56
  %21 = load ptr, ptr %14, align 8, !tbaa !56
  %22 = icmp eq ptr %21, null
  br i1 %22, label %23, label %24

23:                                               ; preds = %4
  store i32 0, ptr %5, align 4
  store i32 1, ptr %15, align 4
  br label %70

24:                                               ; preds = %4
  %25 = load ptr, ptr %8, align 8, !tbaa !55
  call void @Vec_IntClear(ptr noundef %25)
  store i32 0, ptr %11, align 4, !tbaa !8
  %26 = load ptr, ptr %14, align 8, !tbaa !56
  %27 = getelementptr inbounds i32, ptr %26, i64 1
  store ptr %27, ptr %13, align 8, !tbaa !56
  br label %28

28:                                               ; preds = %59, %24
  %29 = load i32, ptr %11, align 4, !tbaa !8
  %30 = load ptr, ptr %14, align 8, !tbaa !56
  %31 = getelementptr inbounds i32, ptr %30, i64 0
  %32 = load i32, ptr %31, align 4, !tbaa !8
  %33 = icmp slt i32 %29, %32
  br i1 %33, label %34, label %69

34:                                               ; preds = %28
  %35 = load ptr, ptr %13, align 8, !tbaa !56
  %36 = getelementptr inbounds i32, ptr %35, i64 0
  %37 = load i32, ptr %36, align 4, !tbaa !8
  %38 = load i32, ptr %9, align 4, !tbaa !8
  %39 = icmp slt i32 %37, %38
  br i1 %39, label %40, label %41

40:                                               ; preds = %34
  br label %59

41:                                               ; preds = %34
  store i32 0, ptr %12, align 4, !tbaa !8
  br label %42

42:                                               ; preds = %55, %41
  %43 = load i32, ptr %12, align 4, !tbaa !8
  %44 = load ptr, ptr %13, align 8, !tbaa !56
  %45 = getelementptr inbounds i32, ptr %44, i64 0
  %46 = load i32, ptr %45, align 4, !tbaa !8
  %47 = icmp sle i32 %43, %46
  br i1 %47, label %48, label %58

48:                                               ; preds = %42
  %49 = load ptr, ptr %8, align 8, !tbaa !55
  %50 = load ptr, ptr %13, align 8, !tbaa !56
  %51 = load i32, ptr %12, align 4, !tbaa !8
  %52 = sext i32 %51 to i64
  %53 = getelementptr inbounds i32, ptr %50, i64 %52
  %54 = load i32, ptr %53, align 4, !tbaa !8
  call void @Vec_IntPush(ptr noundef %49, i32 noundef %54)
  br label %55

55:                                               ; preds = %48
  %56 = load i32, ptr %12, align 4, !tbaa !8
  %57 = add nsw i32 %56, 1
  store i32 %57, ptr %12, align 4, !tbaa !8
  br label %42, !llvm.loop !97

58:                                               ; preds = %42
  store i32 1, ptr %5, align 4
  store i32 1, ptr %15, align 4
  br label %70

59:                                               ; preds = %40
  %60 = load i32, ptr %11, align 4, !tbaa !8
  %61 = add nsw i32 %60, 1
  store i32 %61, ptr %11, align 4, !tbaa !8
  %62 = load ptr, ptr %13, align 8, !tbaa !56
  %63 = getelementptr inbounds i32, ptr %62, i64 0
  %64 = load i32, ptr %63, align 4, !tbaa !8
  %65 = add nsw i32 %64, 2
  %66 = load ptr, ptr %13, align 8, !tbaa !56
  %67 = sext i32 %65 to i64
  %68 = getelementptr inbounds i32, ptr %66, i64 %67
  store ptr %68, ptr %13, align 8, !tbaa !56
  br label %28, !llvm.loop !98

69:                                               ; preds = %28
  store i32 0, ptr %5, align 4
  store i32 1, ptr %15, align 4
  br label %70

70:                                               ; preds = %69, %58, %23
  call void @llvm.lifetime.end.p0(i64 8, ptr %14) #12
  call void @llvm.lifetime.end.p0(i64 8, ptr %13) #12
  call void @llvm.lifetime.end.p0(i64 4, ptr %12) #12
  call void @llvm.lifetime.end.p0(i64 4, ptr %11) #12
  call void @llvm.lifetime.end.p0(i64 8, ptr %10) #12
  %71 = load i32, ptr %5, align 4
  ret i32 %71
}