; Function Attrs: nounwind uwtable
define range(i32 0, 2) i32 @Gia_StoSelectOneCut(ptr noundef readonly captures(none) %0, i32 noundef %1, ptr noundef captures(none) %2, i32 noundef %3) local_unnamed_addr #0 {
  %5 = getelementptr i8, ptr %0, i64 8
  %.val = load ptr, ptr %5, align 8, !tbaa !34
  %6 = sext i32 %1 to i64
  %7 = getelementptr %struct.Vec_Int_t_, ptr %.val, i64 %6, i32 2
  %.val24 = load ptr, ptr %7, align 8, !tbaa !36
  %8 = icmp eq ptr %.val24, null
  br i1 %8, label %.loopexit, label %9

9:                                                ; preds = %4
  %10 = getelementptr inbounds nuw i8, ptr %2, i64 4
  store i32 0, ptr %10, align 4, !tbaa !89
  %11 = load i32, ptr %.val24, align 4, !tbaa !37
  %12 = icmp sgt i32 %11, 0
  br i1 %12, label %.lr.ph.preheader, label %.loopexit

.lr.ph.preheader:                                 ; preds = %9
  %13 = getelementptr inbounds nuw i8, ptr %.val24, i64 4
  br label %.lr.ph

.lr.ph:                                           ; preds = %.lr.ph.preheader, %49
  %.01928 = phi ptr [ %53, %49 ], [ %13, %.lr.ph.preheader ]
  %.02127 = phi i32 [ %50, %49 ], [ 0, %.lr.ph.preheader ]
  %14 = load i32, ptr %.01928, align 4, !tbaa !37
  %15 = icmp slt i32 %14, %3
  br i1 %15, label %49, label %.preheader

.preheader:                                       ; preds = %.lr.ph
  %.not29 = icmp slt i32 %14, 0
  br i1 %.not29, label %.loopexit, label %.lr.ph31

.lr.ph31:                                         ; preds = %.preheader
  %.phi.trans.insert.i = getelementptr inbounds nuw i8, ptr %2, i64 8
  br label %16

16:                                               ; preds = %.lr.ph31, %Vec_IntPush.exit
  %indvars.iv = phi i64 [ 0, %.lr.ph31 ], [ %indvars.iv.next, %Vec_IntPush.exit ]
  %17 = getelementptr inbounds nuw i32, ptr %.01928, i64 %indvars.iv
  %18 = load i32, ptr %17, align 4, !tbaa !37
  %19 = load i32, ptr %10, align 4, !tbaa !89
  %20 = load i32, ptr %2, align 8, !tbaa !90
  %21 = icmp eq i32 %19, %20
  br i1 %21, label %22, label %.Vec_IntGrow.exit10_crit_edge.i

.Vec_IntGrow.exit10_crit_edge.i:                  ; preds = %16
  %.pre.i = load ptr, ptr %.phi.trans.insert.i, align 8, !tbaa !36
  br label %Vec_IntPush.exit

22:                                               ; preds = %16
  %23 = icmp slt i32 %19, 16
  br i1 %23, label %24, label %31

24:                                               ; preds = %22
  %25 = load ptr, ptr %.phi.trans.insert.i, align 8, !tbaa !36
  %.not9.i.i = icmp eq ptr %25, null
  br i1 %.not9.i.i, label %28, label %26

26:                                               ; preds = %24
  %27 = tail call dereferenceable_or_null(64) ptr @realloc(ptr noundef nonnull %25, i64 noundef 64) #27
  br label %Vec_IntGrow.exit.i

28:                                               ; preds = %24
  %29 = tail call noalias dereferenceable_or_null(64) ptr @malloc(i64 noundef 64) #28
  br label %Vec_IntGrow.exit.i

Vec_IntGrow.exit.i:                               ; preds = %28, %26
  %30 = phi ptr [ %27, %26 ], [ %29, %28 ]
  store ptr %30, ptr %.phi.trans.insert.i, align 8, !tbaa !36
  store i32 16, ptr %2, align 8, !tbaa !90
  br label %Vec_IntPush.exit

31:                                               ; preds = %22
  %32 = shl nuw nsw i32 %19, 1
  %33 = load ptr, ptr %.phi.trans.insert.i, align 8, !tbaa !36
  %.not9.i9.i = icmp eq ptr %33, null
  %34 = zext nneg i32 %32 to i64
  %35 = shl nuw nsw i64 %34, 2
  br i1 %.not9.i9.i, label %38, label %36

36:                                               ; preds = %31
  %37 = tail call ptr @realloc(ptr noundef nonnull %33, i64 noundef %35) #27
  br label %40

38:                                               ; preds = %31
  %39 = tail call noalias ptr @malloc(i64 noundef %35) #28
  br label %40

40:                                               ; preds = %38, %36
  %41 = phi ptr [ %37, %36 ], [ %39, %38 ]
  store ptr %41, ptr %.phi.trans.insert.i, align 8, !tbaa !36
  store i32 %32, ptr %2, align 8, !tbaa !90
  br label %Vec_IntPush.exit

Vec_IntPush.exit:                                 ; preds = %.Vec_IntGrow.exit10_crit_edge.i, %Vec_IntGrow.exit.i, %40
  %42 = phi ptr [ %.pre.i, %.Vec_IntGrow.exit10_crit_edge.i ], [ %41, %40 ], [ %30, %Vec_IntGrow.exit.i ]
  %43 = load i32, ptr %10, align 4, !tbaa !89
  %44 = add nsw i32 %43, 1
  store i32 %44, ptr %10, align 4, !tbaa !89
  %45 = sext i32 %43 to i64
  %46 = getelementptr inbounds i32, ptr %42, i64 %45
  store i32 %18, ptr %46, align 4, !tbaa !37
  %indvars.iv.next = add nuw nsw i64 %indvars.iv, 1
  %47 = load i32, ptr %.01928, align 4, !tbaa !37
  %48 = sext i32 %47 to i64
  %.not.not = icmp slt i64 %indvars.iv, %48
  br i1 %.not.not, label %16, label %.loopexit, !llvm.loop !114

49:                                               ; preds = %.lr.ph
  %50 = add nuw nsw i32 %.02127, 1
  %51 = sext i32 %14 to i64
  %52 = getelementptr i32, ptr %.01928, i64 %51
  %53 = getelementptr i8, ptr %52, i64 8
  %exitcond.not = icmp eq i32 %50, %11
  br i1 %exitcond.not, label %.loopexit, label %.lr.ph, !llvm.loop !115

.loopexit:                                        ; preds = %49, %Vec_IntPush.exit, %9, %.preheader, %4
  %.0 = phi i32 [ 0, %4 ], [ 1, %.preheader ], [ 0, %9 ], [ 1, %Vec_IntPush.exit ], [ 0, %49 ]
  ret i32 %.0
}